Archive member included to satisfy reference by file (symbol)

/opt/homebrew/Cellar/riscv64-elf-gcc/16.1.0/lib/gcc/riscv64-elf/16.1.0/rv32im/ilp32/libgcc.a(_clzsi2.o)
                              /Users/jeremy/test_fpga/pocket-tunes/firmware/obj/app_eq.o (__clzsi2)
/opt/homebrew/Cellar/riscv64-elf-gcc/16.1.0/lib/gcc/riscv64-elf/16.1.0/rv32im/ilp32/libgcc.a(_udivdi3.o)
                              /Users/jeremy/test_fpga/pocket-tunes/firmware/obj/app_ui.o (__udivdi3)
/opt/homebrew/Cellar/riscv64-elf-gcc/16.1.0/lib/gcc/riscv64-elf/16.1.0/rv32im/ilp32/libgcc.a(_clz.o)
                              /opt/homebrew/Cellar/riscv64-elf-gcc/16.1.0/lib/gcc/riscv64-elf/16.1.0/rv32im/ilp32/libgcc.a(_clzsi2.o) (__clz_tab)

Merging object attributes


There are no discarded input sections

Memory Configuration

Name             Origin             Length             Attributes
RAM              0x00000000         0x00020000         xrw
*default*        0x00000000         0xffffffff

Linker script and memory map

LOAD /Users/jeremy/test_fpga/pocket-tunes/firmware/obj/app_crt0.o
LOAD /Users/jeremy/test_fpga/pocket-tunes/firmware/obj/app_main.o
LOAD /Users/jeremy/test_fpga/pocket-tunes/firmware/obj/app_gfx.o
LOAD /Users/jeremy/test_fpga/pocket-tunes/firmware/obj/app_lib.o
LOAD /Users/jeremy/test_fpga/pocket-tunes/firmware/obj/app_ui.o
LOAD /Users/jeremy/test_fpga/pocket-tunes/firmware/obj/app_file.o
LOAD /Users/jeremy/test_fpga/pocket-tunes/firmware/obj/app_mp3.o
LOAD /Users/jeremy/test_fpga/pocket-tunes/firmware/obj/app_eq.o
LOAD /Users/jeremy/test_fpga/pocket-tunes/firmware/obj/app_art.o
LOAD /Users/jeremy/test_fpga/pocket-tunes/firmware/obj/helix_mp3dec.o
LOAD /Users/jeremy/test_fpga/pocket-tunes/firmware/obj/helix_mp3tabs.o
LOAD /Users/jeremy/test_fpga/pocket-tunes/firmware/obj/helix_bitstream.o
LOAD /Users/jeremy/test_fpga/pocket-tunes/firmware/obj/helix_buffers.o
LOAD /Users/jeremy/test_fpga/pocket-tunes/firmware/obj/helix_dct32.o
LOAD /Users/jeremy/test_fpga/pocket-tunes/firmware/obj/helix_dequant.o
LOAD /Users/jeremy/test_fpga/pocket-tunes/firmware/obj/helix_dqchan.o
LOAD /Users/jeremy/test_fpga/pocket-tunes/firmware/obj/helix_huffman.o
LOAD /Users/jeremy/test_fpga/pocket-tunes/firmware/obj/helix_hufftabs.o
LOAD /Users/jeremy/test_fpga/pocket-tunes/firmware/obj/helix_imdct.o
LOAD /Users/jeremy/test_fpga/pocket-tunes/firmware/obj/helix_polyphase.o
LOAD /Users/jeremy/test_fpga/pocket-tunes/firmware/obj/helix_scalfact.o
LOAD /Users/jeremy/test_fpga/pocket-tunes/firmware/obj/helix_stproc.o
LOAD /Users/jeremy/test_fpga/pocket-tunes/firmware/obj/helix_subband.o
LOAD /Users/jeremy/test_fpga/pocket-tunes/firmware/obj/helix_trigtabs.o
LOAD /opt/homebrew/Cellar/riscv64-elf-gcc/16.1.0/lib/gcc/riscv64-elf/16.1.0/rv32im/ilp32/libgcc.a
                0x00000000                        . = 0x0

.text           0x00000000     0xca88
 *(.text.init)
 .text.init     0x00000000       0x30 /Users/jeremy/test_fpga/pocket-tunes/firmware/obj/app_crt0.o
                0x00000000                _start
 *(.text*)
 .text          0x00000030        0x0 /Users/jeremy/test_fpga/pocket-tunes/firmware/obj/app_crt0.o
 .text          0x00000030        0x0 /Users/jeremy/test_fpga/pocket-tunes/firmware/obj/app_main.o
 .text.startup  0x00000030      0x29c /Users/jeremy/test_fpga/pocket-tunes/firmware/obj/app_main.o
                0x00000030                main
 .text          0x000002cc      0x968 /Users/jeremy/test_fpga/pocket-tunes/firmware/obj/app_gfx.o
                0x00000498                gfx_clear
                0x000004c0                gfx_fill_rect
                0x0000053c                gfx_hline
                0x00000548                gfx_vline
                0x00000558                gfx_rect
                0x000005f0                gfx_vgrad
                0x00000678                gfx_fill_round
                0x00000738                gfx_rect_round
                0x00000844                gfx_text
                0x00000880                gfx_text_small
                0x000008bc                gfx_textn
                0x000008e8                gfx_textn_small
                0x00000914                gfx_text_px_len
                0x00000988                gfx_text_scroll
                0x00000af8                u32_to_hex
                0x00000b30                u32_to_dec
                0x00000ba0                memcpy
                0x00000bc4                memmove
                0x00000c18                memset
 .text          0x00000c34      0xdd4 /Users/jeremy/test_fpga/pocket-tunes/firmware/obj/app_lib.o
                0x00001258                lib_str
                0x00001278                lib_format_name
                0x000012ac                lib_fetch_path
                0x00001324                lib_parse
 .text          0x00001a08     0x21e8 /Users/jeremy/test_fpga/pocket-tunes/firmware/obj/app_ui.o
                0x000025ec                ui_init
                0x0000265c                ui_input
                0x00002aa4                ui_tick
                0x00002c04                ui_render_full
                0x00003520                ui_render_playing
                0x000037b0                ui_get_state
                0x00003914                ui_apply_state
 .text          0x00003bf0      0x1cc /Users/jeremy/test_fpga/pocket-tunes/firmware/obj/app_file.o
                0x00003cbc                file_read
                0x00003ce8                file_open
                0x00003d54                file_slot_size
 .text          0x00003dbc      0x7d0 /Users/jeremy/test_fpga/pocket-tunes/firmware/obj/app_mp3.o
                0x00003ed4                malloc
                0x00003f0c                free
                0x00003f10                mp3_stop
                0x00003f2c                mp3_start
                0x00004118                mp3_set_paused
                0x00004124                mp3_is_playing
                0x00004140                mp3_at_eof
                0x0000415c                mp3_pos_seconds
                0x00004174                mp3_seek
                0x00004210                mp3_pump
 .text          0x0000458c      0x420 /Users/jeremy/test_fpga/pocket-tunes/firmware/obj/app_eq.o
                0x000045f0                eq_feed
                0x00004620                eq_tick
 .text          0x000049ac      0x248 /Users/jeremy/test_fpga/pocket-tunes/firmware/obj/app_art.o
                0x000049ac                art_ready
                0x000049b8                art_load
                0x00004b8c                art_draw
 .text          0x00004bf4      0x7cc /Users/jeremy/test_fpga/pocket-tunes/firmware/obj/helix_mp3dec.o
                0x00004bf4                MP3InitDecoder
                0x00004bf8                MP3FreeDecoder
                0x00004c04                MP3FindSyncWord
                0x00004c50                MP3GetLastFrameInfo
                0x00004cec                MP3GetNextFrameInfo
                0x00004db0                MP3Decode
 .text          0x000053c0        0x0 /Users/jeremy/test_fpga/pocket-tunes/firmware/obj/helix_mp3tabs.o
 .text          0x000053c0      0x844 /Users/jeremy/test_fpga/pocket-tunes/firmware/obj/helix_bitstream.o
                0x000053c0                xmp3_SetBitstreamPointer
                0x000053d4                xmp3_GetBits
                0x000054f0                xmp3_CalcBitsUsed
                0x0000550c                xmp3_CheckPadBit
                0x0000552c                xmp3_UnpackFrameHeader
                0x00005814                xmp3_UnpackSideInfo
 .text          0x00005c04      0x2cc /Users/jeremy/test_fpga/pocket-tunes/firmware/obj/helix_buffers.o
                0x00005c04                xmp3_FreeBuffers
                0x00005ca0                xmp3_AllocateBuffers
 .text          0x00005ed0      0x8d4 /Users/jeremy/test_fpga/pocket-tunes/firmware/obj/helix_dct32.o
                0x00005ed0                xmp3_FDCT32
 .text          0x000067a4      0x3f0 /Users/jeremy/test_fpga/pocket-tunes/firmware/obj/helix_dequant.o
                0x000067a4                xmp3_Dequantize
 .text          0x00006b94      0x5f0 /Users/jeremy/test_fpga/pocket-tunes/firmware/obj/helix_dqchan.o
                0x00006dc4                xmp3_DequantChannel
 .text          0x00007184      0xb50 /Users/jeremy/test_fpga/pocket-tunes/firmware/obj/helix_huffman.o
                0x00007184                xmp3_DecodeHuffman
 .text          0x00007cd4        0x0 /Users/jeremy/test_fpga/pocket-tunes/firmware/obj/helix_hufftabs.o
 .text          0x00007cd4     0x1610 /Users/jeremy/test_fpga/pocket-tunes/firmware/obj/helix_imdct.o
                0x0000802c                xmp3_IMDCT
 .text          0x000092e4     0x1d1c /Users/jeremy/test_fpga/pocket-tunes/firmware/obj/helix_polyphase.o
                0x000092e4                xmp3_PolyphaseMono
                0x00009c9c                xmp3_PolyphaseStereo
 .text          0x0000b000      0xaf4 /Users/jeremy/test_fpga/pocket-tunes/firmware/obj/helix_scalfact.o
                0x0000b000                xmp3_UnpackScaleFactors
 .text          0x0000baf4      0x8c4 /Users/jeremy/test_fpga/pocket-tunes/firmware/obj/helix_stproc.o
                0x0000baf4                xmp3_MidSideProc
                0x0000bb94                xmp3_IntensityProcMPEG1
                0x0000c044                xmp3_IntensityProcMPEG2
 .text          0x0000c3b8      0x1b4 /Users/jeremy/test_fpga/pocket-tunes/firmware/obj/helix_subband.o
                0x0000c3b8                xmp3_Subband
 .text          0x0000c56c        0x0 /Users/jeremy/test_fpga/pocket-tunes/firmware/obj/helix_trigtabs.o
 .text          0x0000c56c       0x6c /opt/homebrew/Cellar/riscv64-elf-gcc/16.1.0/lib/gcc/riscv64-elf/16.1.0/rv32im/ilp32/libgcc.a(_clzsi2.o)
                0x0000c56c                __clzsi2
 .text          0x0000c5d8      0x4b0 /opt/homebrew/Cellar/riscv64-elf-gcc/16.1.0/lib/gcc/riscv64-elf/16.1.0/rv32im/ilp32/libgcc.a(_udivdi3.o)
                0x0000c5d8                __udivdi3
 .text          0x0000ca88        0x0 /opt/homebrew/Cellar/riscv64-elf-gcc/16.1.0/lib/gcc/riscv64-elf/16.1.0/rv32im/ilp32/libgcc.a(_clz.o)

.rodata         0x0000ca88     0x46e0
 *(.rodata*)
 .rodata.str1.4
                0x0000ca88      0x26c /Users/jeremy/test_fpga/pocket-tunes/firmware/obj/app_main.o
                                 0xea (size before relaxing)
 .rodata        0x0000ccf4      0xfab /Users/jeremy/test_fpga/pocket-tunes/firmware/obj/app_gfx.o
 .rodata.str1.4
                0x0000dc9f        0x0 /Users/jeremy/test_fpga/pocket-tunes/firmware/obj/app_lib.o
                                 0x90 (size before relaxing)
 *fill*         0x0000dc9f        0x1 
 .rodata        0x0000dca0       0x14 /Users/jeremy/test_fpga/pocket-tunes/firmware/obj/app_lib.o
 .rodata.str1.4
                0x0000dcb4        0x0 /Users/jeremy/test_fpga/pocket-tunes/firmware/obj/app_ui.o
                                 0xcd (size before relaxing)
 .rodata        0x0000dcb4       0x34 /Users/jeremy/test_fpga/pocket-tunes/firmware/obj/app_ui.o
 .rodata        0x0000dce8      0x19b /Users/jeremy/test_fpga/pocket-tunes/firmware/obj/app_eq.o
 .rodata.str1.4
                0x0000de83        0x0 /Users/jeremy/test_fpga/pocket-tunes/firmware/obj/app_art.o
                                 0x2c (size before relaxing)
 *fill*         0x0000de83        0x1 
 .rodata        0x0000de84      0x500 /Users/jeremy/test_fpga/pocket-tunes/firmware/obj/helix_mp3tabs.o
                0x0000de84                xmp3_sfBandTable
                0x0000e120                xmp3_slotTab
                0x0000e230                xmp3_sideBytesTab
                0x0000e23c                xmp3_samplesPerFrameTab
                0x0000e250                xmp3_bitrateTab
                0x0000e360                xmp3_samplerateTab
 .rodata        0x0000e384       0xc0 /Users/jeremy/test_fpga/pocket-tunes/firmware/obj/helix_dct32.o
 .rodata        0x0000e444       0x16 /Users/jeremy/test_fpga/pocket-tunes/firmware/obj/helix_dqchan.o
 *fill*         0x0000e45a        0x2 
 .rodata        0x0000e45c     0x22f4 /Users/jeremy/test_fpga/pocket-tunes/firmware/obj/helix_hufftabs.o
                0x0000e45c                xmp3_quadTable
                0x0000e4ac                xmp3_huffTabLookup
                0x0000e5ac                xmp3_huffTabOffset
                0x0000e62c                xmp3_huffTable
 .rodata        0x00010750       0x24 /Users/jeremy/test_fpga/pocket-tunes/firmware/obj/helix_imdct.o
 .rodata        0x00010774       0x68 /Users/jeremy/test_fpga/pocket-tunes/firmware/obj/helix_scalfact.o
 .rodata        0x000107dc      0x864 /Users/jeremy/test_fpga/pocket-tunes/firmware/obj/helix_trigtabs.o
                0x000107dc                xmp3_polyCoef
                0x00010bfc                xmp3_coef32
                0x00010c78                xmp3_csa
                0x00010cb8                xmp3_ISFIIP
                0x00010cc8                xmp3_ISFMpeg2
                0x00010dc8                xmp3_ISFMpeg1
                0x00010e00                xmp3_imdctWin
 .rodata        0x00011040      0x100 /opt/homebrew/Cellar/riscv64-elf-gcc/16.1.0/lib/gcc/riscv64-elf/16.1.0/rv32im/ilp32/libgcc.a(_clz.o)
                0x00011040                __clz_tab
 *(.srodata*)
 .srodata       0x00011140        0x8 /Users/jeremy/test_fpga/pocket-tunes/firmware/obj/app_ui.o
 .srodata       0x00011148        0x6 /Users/jeremy/test_fpga/pocket-tunes/firmware/obj/helix_mp3tabs.o
                0x00011148                xmp3_bitsPerSlotTab
 *fill*         0x0001114e        0x2 
 .srodata       0x00011150       0x10 /Users/jeremy/test_fpga/pocket-tunes/firmware/obj/helix_hufftabs.o
                0x00011150                xmp3_quadTabMaxBits
                0x00011158                xmp3_quadTabOffset
 .srodata       0x00011160        0x8 /Users/jeremy/test_fpga/pocket-tunes/firmware/obj/helix_trigtabs.o
                0x00011160                xmp3_uniqueIDTab

.eh_frame       0x00011168       0x28
 .eh_frame      0x00011168       0x28 /opt/homebrew/Cellar/riscv64-elf-gcc/16.1.0/lib/gcc/riscv64-elf/16.1.0/rv32im/ilp32/libgcc.a(_udivdi3.o)

.rela.dyn       0x00011190        0x0
 .rela.text.init
                0x00011190        0x0 /Users/jeremy/test_fpga/pocket-tunes/firmware/obj/app_crt0.o

.data           0x00011190      0x28c
 *(.data*)
 .data          0x00011190        0x0 /Users/jeremy/test_fpga/pocket-tunes/firmware/obj/app_crt0.o
 .data          0x00011190        0x0 /Users/jeremy/test_fpga/pocket-tunes/firmware/obj/app_main.o
 .data          0x00011190        0x0 /Users/jeremy/test_fpga/pocket-tunes/firmware/obj/app_gfx.o
 .data          0x00011190        0x0 /Users/jeremy/test_fpga/pocket-tunes/firmware/obj/app_lib.o
 .data          0x00011190        0x0 /Users/jeremy/test_fpga/pocket-tunes/firmware/obj/app_ui.o
 .data          0x00011190        0x0 /Users/jeremy/test_fpga/pocket-tunes/firmware/obj/app_file.o
 .data          0x00011190        0x0 /Users/jeremy/test_fpga/pocket-tunes/firmware/obj/app_mp3.o
 .data          0x00011190        0x0 /Users/jeremy/test_fpga/pocket-tunes/firmware/obj/app_eq.o
 .data          0x00011190        0x0 /Users/jeremy/test_fpga/pocket-tunes/firmware/obj/app_art.o
 .data          0x00011190        0x0 /Users/jeremy/test_fpga/pocket-tunes/firmware/obj/helix_mp3dec.o
 .data          0x00011190        0x0 /Users/jeremy/test_fpga/pocket-tunes/firmware/obj/helix_mp3tabs.o
 .data          0x00011190        0x0 /Users/jeremy/test_fpga/pocket-tunes/firmware/obj/helix_bitstream.o
 .data          0x00011190        0x0 /Users/jeremy/test_fpga/pocket-tunes/firmware/obj/helix_buffers.o
 .data          0x00011190        0x0 /Users/jeremy/test_fpga/pocket-tunes/firmware/obj/helix_dct32.o
 .data          0x00011190        0x0 /Users/jeremy/test_fpga/pocket-tunes/firmware/obj/helix_dequant.o
 .data          0x00011190      0x238 /Users/jeremy/test_fpga/pocket-tunes/firmware/obj/helix_dqchan.o
                0x00011190                poly43lo
                0x000111a4                poly43hi
                0x000111b8                pow43_14
                0x000112b8                pow14
                0x000112c8                pow43
                0x00011388                pow2frac
                0x000113a8                pow2exp
 .data          0x000113c8        0x0 /Users/jeremy/test_fpga/pocket-tunes/firmware/obj/helix_huffman.o
 .data          0x000113c8        0x0 /Users/jeremy/test_fpga/pocket-tunes/firmware/obj/helix_hufftabs.o
 .data          0x000113c8       0x48 /Users/jeremy/test_fpga/pocket-tunes/firmware/obj/helix_imdct.o
                0x000113c8                fastWin36
 .data          0x00011410        0x0 /Users/jeremy/test_fpga/pocket-tunes/firmware/obj/helix_polyphase.o
 .data          0x00011410        0x0 /Users/jeremy/test_fpga/pocket-tunes/firmware/obj/helix_scalfact.o
 .data          0x00011410        0x0 /Users/jeremy/test_fpga/pocket-tunes/firmware/obj/helix_stproc.o
 .data          0x00011410        0x0 /Users/jeremy/test_fpga/pocket-tunes/firmware/obj/helix_subband.o
 .data          0x00011410        0x0 /Users/jeremy/test_fpga/pocket-tunes/firmware/obj/helix_trigtabs.o
 .data          0x00011410        0x0 /opt/homebrew/Cellar/riscv64-elf-gcc/16.1.0/lib/gcc/riscv64-elf/16.1.0/rv32im/ilp32/libgcc.a(_clzsi2.o)
 .data          0x00011410        0x0 /opt/homebrew/Cellar/riscv64-elf-gcc/16.1.0/lib/gcc/riscv64-elf/16.1.0/rv32im/ilp32/libgcc.a(_udivdi3.o)
 .data          0x00011410        0x0 /opt/homebrew/Cellar/riscv64-elf-gcc/16.1.0/lib/gcc/riscv64-elf/16.1.0/rv32im/ilp32/libgcc.a(_clz.o)
 *(.sdata*)
 .sdata         0x00011410        0xc /Users/jeremy/test_fpga/pocket-tunes/firmware/obj/app_ui.o

.bss            0x00011420     0xdfa8
                0x00011420                        __bss_start = .
 *(.bss*)
 .bss           0x00011420        0x0 /Users/jeremy/test_fpga/pocket-tunes/firmware/obj/app_crt0.o
 .bss           0x00011420        0x0 /Users/jeremy/test_fpga/pocket-tunes/firmware/obj/app_main.o
 .bss           0x00011420        0x0 /Users/jeremy/test_fpga/pocket-tunes/firmware/obj/app_gfx.o
 .bss           0x00011420     0x5cc4 /Users/jeremy/test_fpga/pocket-tunes/firmware/obj/app_lib.o
                0x00011564                lib_albums
                0x000119e4                lib_artists
                0x00011b24                lib_stage
                0x00016324                lib_tracks
 .bss           0x000170e4      0x120 /Users/jeremy/test_fpga/pocket-tunes/firmware/obj/app_ui.o
 .bss           0x00017204        0x0 /Users/jeremy/test_fpga/pocket-tunes/firmware/obj/app_file.o
 *fill*         0x00017204        0x4 
 .bss           0x00017208     0x7200 /Users/jeremy/test_fpga/pocket-tunes/firmware/obj/app_mp3.o
 .bss           0x0001e408      0x612 /Users/jeremy/test_fpga/pocket-tunes/firmware/obj/app_eq.o
                0x0001ea08                eq_bars
 *fill*         0x0001ea1a        0x2 
 .bss           0x0001ea1c      0x900 /Users/jeremy/test_fpga/pocket-tunes/firmware/obj/app_art.o
 .bss           0x0001f31c        0x0 /Users/jeremy/test_fpga/pocket-tunes/firmware/obj/helix_mp3dec.o
 .bss           0x0001f31c        0x0 /Users/jeremy/test_fpga/pocket-tunes/firmware/obj/helix_mp3tabs.o
 .bss           0x0001f31c        0x0 /Users/jeremy/test_fpga/pocket-tunes/firmware/obj/helix_bitstream.o
 .bss           0x0001f31c        0x0 /Users/jeremy/test_fpga/pocket-tunes/firmware/obj/helix_buffers.o
 .bss           0x0001f31c        0x0 /Users/jeremy/test_fpga/pocket-tunes/firmware/obj/helix_dct32.o
 .bss           0x0001f31c        0x0 /Users/jeremy/test_fpga/pocket-tunes/firmware/obj/helix_dequant.o
 .bss           0x0001f31c        0x0 /Users/jeremy/test_fpga/pocket-tunes/firmware/obj/helix_dqchan.o
 .bss           0x0001f31c        0x0 /Users/jeremy/test_fpga/pocket-tunes/firmware/obj/helix_huffman.o
 .bss           0x0001f31c        0x0 /Users/jeremy/test_fpga/pocket-tunes/firmware/obj/helix_hufftabs.o
 .bss           0x0001f31c        0x0 /Users/jeremy/test_fpga/pocket-tunes/firmware/obj/helix_imdct.o
 .bss           0x0001f31c        0x0 /Users/jeremy/test_fpga/pocket-tunes/firmware/obj/helix_polyphase.o
 .bss           0x0001f31c        0x0 /Users/jeremy/test_fpga/pocket-tunes/firmware/obj/helix_scalfact.o
 .bss           0x0001f31c        0x0 /Users/jeremy/test_fpga/pocket-tunes/firmware/obj/helix_stproc.o
 .bss           0x0001f31c        0x0 /Users/jeremy/test_fpga/pocket-tunes/firmware/obj/helix_subband.o
 .bss           0x0001f31c        0x0 /Users/jeremy/test_fpga/pocket-tunes/firmware/obj/helix_trigtabs.o
 .bss           0x0001f31c        0x0 /opt/homebrew/Cellar/riscv64-elf-gcc/16.1.0/lib/gcc/riscv64-elf/16.1.0/rv32im/ilp32/libgcc.a(_clzsi2.o)
 .bss           0x0001f31c        0x0 /opt/homebrew/Cellar/riscv64-elf-gcc/16.1.0/lib/gcc/riscv64-elf/16.1.0/rv32im/ilp32/libgcc.a(_udivdi3.o)
 .bss           0x0001f31c        0x0 /opt/homebrew/Cellar/riscv64-elf-gcc/16.1.0/lib/gcc/riscv64-elf/16.1.0/rv32im/ilp32/libgcc.a(_clz.o)
 *(.sbss*)
 .sbss          0x0001f31c        0x2 /Users/jeremy/test_fpga/pocket-tunes/firmware/obj/app_main.o
 *fill*         0x0001f31e        0x2 
 .sbss          0x0001f320       0x28 /Users/jeremy/test_fpga/pocket-tunes/firmware/obj/app_lib.o
                0x0001f33c                lib_n_tracks
                0x0001f340                lib_n_albums
                0x0001f344                lib_n_artists
 .sbss          0x0001f348       0x3c /Users/jeremy/test_fpga/pocket-tunes/firmware/obj/app_ui.o
 .sbss          0x0001f384       0x3c /Users/jeremy/test_fpga/pocket-tunes/firmware/obj/app_mp3.o
 .sbss          0x0001f3c0        0x4 /Users/jeremy/test_fpga/pocket-tunes/firmware/obj/app_eq.o
 .sbss          0x0001f3c4        0x4 /Users/jeremy/test_fpga/pocket-tunes/firmware/obj/app_art.o
 *(COMMON)
                0x0001f3c8                        __bss_end = .
                0x00020000                        _stack_top = (ORIGIN (RAM) + LENGTH (RAM))
OUTPUT(/Users/jeremy/test_fpga/pocket-tunes/firmware/firmware.elf elf32-littleriscv)

.riscv.attributes
                0x00000000       0x2a
 .riscv.attributes
                0x00000000       0x28 /Users/jeremy/test_fpga/pocket-tunes/firmware/obj/app_crt0.o
 .riscv.attributes
                0x00000028       0x2a /Users/jeremy/test_fpga/pocket-tunes/firmware/obj/app_main.o
 .riscv.attributes
                0x00000052       0x2a /Users/jeremy/test_fpga/pocket-tunes/firmware/obj/app_gfx.o
 .riscv.attributes
                0x0000007c       0x2a /Users/jeremy/test_fpga/pocket-tunes/firmware/obj/app_lib.o
 .riscv.attributes
                0x000000a6       0x2a /Users/jeremy/test_fpga/pocket-tunes/firmware/obj/app_ui.o
 .riscv.attributes
                0x000000d0       0x2a /Users/jeremy/test_fpga/pocket-tunes/firmware/obj/app_file.o
 .riscv.attributes
                0x000000fa       0x2a /Users/jeremy/test_fpga/pocket-tunes/firmware/obj/app_mp3.o
 .riscv.attributes
                0x00000124       0x2a /Users/jeremy/test_fpga/pocket-tunes/firmware/obj/app_eq.o
 .riscv.attributes
                0x0000014e       0x2a /Users/jeremy/test_fpga/pocket-tunes/firmware/obj/app_art.o
 .riscv.attributes
                0x00000178       0x2a /Users/jeremy/test_fpga/pocket-tunes/firmware/obj/helix_mp3dec.o
 .riscv.attributes
                0x000001a2       0x2a /Users/jeremy/test_fpga/pocket-tunes/firmware/obj/helix_mp3tabs.o
 .riscv.attributes
                0x000001cc       0x2a /Users/jeremy/test_fpga/pocket-tunes/firmware/obj/helix_bitstream.o
 .riscv.attributes
                0x000001f6       0x2a /Users/jeremy/test_fpga/pocket-tunes/firmware/obj/helix_buffers.o
 .riscv.attributes
                0x00000220       0x2a /Users/jeremy/test_fpga/pocket-tunes/firmware/obj/helix_dct32.o
 .riscv.attributes
                0x0000024a       0x2a /Users/jeremy/test_fpga/pocket-tunes/firmware/obj/helix_dequant.o
 .riscv.attributes
                0x00000274       0x2a /Users/jeremy/test_fpga/pocket-tunes/firmware/obj/helix_dqchan.o
 .riscv.attributes
                0x0000029e       0x2a /Users/jeremy/test_fpga/pocket-tunes/firmware/obj/helix_huffman.o
 .riscv.attributes
                0x000002c8       0x2a /Users/jeremy/test_fpga/pocket-tunes/firmware/obj/helix_hufftabs.o
 .riscv.attributes
                0x000002f2       0x2a /Users/jeremy/test_fpga/pocket-tunes/firmware/obj/helix_imdct.o
 .riscv.attributes
                0x0000031c       0x2a /Users/jeremy/test_fpga/pocket-tunes/firmware/obj/helix_polyphase.o
 .riscv.attributes
                0x00000346       0x2a /Users/jeremy/test_fpga/pocket-tunes/firmware/obj/helix_scalfact.o
 .riscv.attributes
                0x00000370       0x2a /Users/jeremy/test_fpga/pocket-tunes/firmware/obj/helix_stproc.o
 .riscv.attributes
                0x0000039a       0x2a /Users/jeremy/test_fpga/pocket-tunes/firmware/obj/helix_subband.o
 .riscv.attributes
                0x000003c4       0x2a /Users/jeremy/test_fpga/pocket-tunes/firmware/obj/helix_trigtabs.o
 .riscv.attributes
                0x000003ee       0x2a /opt/homebrew/Cellar/riscv64-elf-gcc/16.1.0/lib/gcc/riscv64-elf/16.1.0/rv32im/ilp32/libgcc.a(_clzsi2.o)
 .riscv.attributes
                0x00000418       0x2a /opt/homebrew/Cellar/riscv64-elf-gcc/16.1.0/lib/gcc/riscv64-elf/16.1.0/rv32im/ilp32/libgcc.a(_udivdi3.o)
 .riscv.attributes
                0x00000442       0x2a /opt/homebrew/Cellar/riscv64-elf-gcc/16.1.0/lib/gcc/riscv64-elf/16.1.0/rv32im/ilp32/libgcc.a(_clz.o)

.comment        0x00000000       0x12
 .comment       0x00000000       0x12 /Users/jeremy/test_fpga/pocket-tunes/firmware/obj/app_main.o
                                 0x13 (size before relaxing)
 .comment       0x00000012        0x0 /Users/jeremy/test_fpga/pocket-tunes/firmware/obj/app_gfx.o
                                 0x13 (size before relaxing)
 .comment       0x00000012        0x0 /Users/jeremy/test_fpga/pocket-tunes/firmware/obj/app_lib.o
                                 0x13 (size before relaxing)
 .comment       0x00000012        0x0 /Users/jeremy/test_fpga/pocket-tunes/firmware/obj/app_ui.o
                                 0x13 (size before relaxing)
 .comment       0x00000012        0x0 /Users/jeremy/test_fpga/pocket-tunes/firmware/obj/app_file.o
                                 0x13 (size before relaxing)
 .comment       0x00000012        0x0 /Users/jeremy/test_fpga/pocket-tunes/firmware/obj/app_mp3.o
                                 0x13 (size before relaxing)
 .comment       0x00000012        0x0 /Users/jeremy/test_fpga/pocket-tunes/firmware/obj/app_eq.o
                                 0x13 (size before relaxing)
 .comment       0x00000012        0x0 /Users/jeremy/test_fpga/pocket-tunes/firmware/obj/app_art.o
                                 0x13 (size before relaxing)
 .comment       0x00000012        0x0 /Users/jeremy/test_fpga/pocket-tunes/firmware/obj/helix_mp3dec.o
                                 0x13 (size before relaxing)
 .comment       0x00000012        0x0 /Users/jeremy/test_fpga/pocket-tunes/firmware/obj/helix_mp3tabs.o
                                 0x13 (size before relaxing)
 .comment       0x00000012        0x0 /Users/jeremy/test_fpga/pocket-tunes/firmware/obj/helix_bitstream.o
                                 0x13 (size before relaxing)
 .comment       0x00000012        0x0 /Users/jeremy/test_fpga/pocket-tunes/firmware/obj/helix_buffers.o
                                 0x13 (size before relaxing)
 .comment       0x00000012        0x0 /Users/jeremy/test_fpga/pocket-tunes/firmware/obj/helix_dct32.o
                                 0x13 (size before relaxing)
 .comment       0x00000012        0x0 /Users/jeremy/test_fpga/pocket-tunes/firmware/obj/helix_dequant.o
                                 0x13 (size before relaxing)
 .comment       0x00000012        0x0 /Users/jeremy/test_fpga/pocket-tunes/firmware/obj/helix_dqchan.o
                                 0x13 (size before relaxing)
 .comment       0x00000012        0x0 /Users/jeremy/test_fpga/pocket-tunes/firmware/obj/helix_huffman.o
                                 0x13 (size before relaxing)
 .comment       0x00000012        0x0 /Users/jeremy/test_fpga/pocket-tunes/firmware/obj/helix_hufftabs.o
                                 0x13 (size before relaxing)
 .comment       0x00000012        0x0 /Users/jeremy/test_fpga/pocket-tunes/firmware/obj/helix_imdct.o
                                 0x13 (size before relaxing)
 .comment       0x00000012        0x0 /Users/jeremy/test_fpga/pocket-tunes/firmware/obj/helix_polyphase.o
                                 0x13 (size before relaxing)
 .comment       0x00000012        0x0 /Users/jeremy/test_fpga/pocket-tunes/firmware/obj/helix_scalfact.o
                                 0x13 (size before relaxing)
 .comment       0x00000012        0x0 /Users/jeremy/test_fpga/pocket-tunes/firmware/obj/helix_stproc.o
                                 0x13 (size before relaxing)
 .comment       0x00000012        0x0 /Users/jeremy/test_fpga/pocket-tunes/firmware/obj/helix_subband.o
                                 0x13 (size before relaxing)
 .comment       0x00000012        0x0 /Users/jeremy/test_fpga/pocket-tunes/firmware/obj/helix_trigtabs.o
                                 0x13 (size before relaxing)
 .comment       0x00000012        0x0 /opt/homebrew/Cellar/riscv64-elf-gcc/16.1.0/lib/gcc/riscv64-elf/16.1.0/rv32im/ilp32/libgcc.a(_clzsi2.o)
                                 0x13 (size before relaxing)
 .comment       0x00000012        0x0 /opt/homebrew/Cellar/riscv64-elf-gcc/16.1.0/lib/gcc/riscv64-elf/16.1.0/rv32im/ilp32/libgcc.a(_udivdi3.o)
                                 0x13 (size before relaxing)
 .comment       0x00000012        0x0 /opt/homebrew/Cellar/riscv64-elf-gcc/16.1.0/lib/gcc/riscv64-elf/16.1.0/rv32im/ilp32/libgcc.a(_clz.o)
                                 0x13 (size before relaxing)

.note.GNU-stack
                0x00000000        0x0
 .note.GNU-stack
                0x00000000        0x0 /Users/jeremy/test_fpga/pocket-tunes/firmware/obj/app_main.o
 .note.GNU-stack
                0x00000000        0x0 /Users/jeremy/test_fpga/pocket-tunes/firmware/obj/app_gfx.o
 .note.GNU-stack
                0x00000000        0x0 /Users/jeremy/test_fpga/pocket-tunes/firmware/obj/app_lib.o
 .note.GNU-stack
                0x00000000        0x0 /Users/jeremy/test_fpga/pocket-tunes/firmware/obj/app_ui.o
 .note.GNU-stack
                0x00000000        0x0 /Users/jeremy/test_fpga/pocket-tunes/firmware/obj/app_file.o
 .note.GNU-stack
                0x00000000        0x0 /Users/jeremy/test_fpga/pocket-tunes/firmware/obj/app_mp3.o
 .note.GNU-stack
                0x00000000        0x0 /Users/jeremy/test_fpga/pocket-tunes/firmware/obj/app_eq.o
 .note.GNU-stack
                0x00000000        0x0 /Users/jeremy/test_fpga/pocket-tunes/firmware/obj/app_art.o
 .note.GNU-stack
                0x00000000        0x0 /Users/jeremy/test_fpga/pocket-tunes/firmware/obj/helix_mp3dec.o
 .note.GNU-stack
                0x00000000        0x0 /Users/jeremy/test_fpga/pocket-tunes/firmware/obj/helix_mp3tabs.o
 .note.GNU-stack
                0x00000000        0x0 /Users/jeremy/test_fpga/pocket-tunes/firmware/obj/helix_bitstream.o
 .note.GNU-stack
                0x00000000        0x0 /Users/jeremy/test_fpga/pocket-tunes/firmware/obj/helix_buffers.o
 .note.GNU-stack
                0x00000000        0x0 /Users/jeremy/test_fpga/pocket-tunes/firmware/obj/helix_dct32.o
 .note.GNU-stack
                0x00000000        0x0 /Users/jeremy/test_fpga/pocket-tunes/firmware/obj/helix_dequant.o
 .note.GNU-stack
                0x00000000        0x0 /Users/jeremy/test_fpga/pocket-tunes/firmware/obj/helix_dqchan.o
 .note.GNU-stack
                0x00000000        0x0 /Users/jeremy/test_fpga/pocket-tunes/firmware/obj/helix_huffman.o
 .note.GNU-stack
                0x00000000        0x0 /Users/jeremy/test_fpga/pocket-tunes/firmware/obj/helix_hufftabs.o
 .note.GNU-stack
                0x00000000        0x0 /Users/jeremy/test_fpga/pocket-tunes/firmware/obj/helix_imdct.o
 .note.GNU-stack
                0x00000000        0x0 /Users/jeremy/test_fpga/pocket-tunes/firmware/obj/helix_polyphase.o
 .note.GNU-stack
                0x00000000        0x0 /Users/jeremy/test_fpga/pocket-tunes/firmware/obj/helix_scalfact.o
 .note.GNU-stack
                0x00000000        0x0 /Users/jeremy/test_fpga/pocket-tunes/firmware/obj/helix_stproc.o
 .note.GNU-stack
                0x00000000        0x0 /Users/jeremy/test_fpga/pocket-tunes/firmware/obj/helix_subband.o
 .note.GNU-stack
                0x00000000        0x0 /Users/jeremy/test_fpga/pocket-tunes/firmware/obj/helix_trigtabs.o
 .note.GNU-stack
                0x00000000        0x0 /opt/homebrew/Cellar/riscv64-elf-gcc/16.1.0/lib/gcc/riscv64-elf/16.1.0/rv32im/ilp32/libgcc.a(_clzsi2.o)
 .note.GNU-stack
                0x00000000        0x0 /opt/homebrew/Cellar/riscv64-elf-gcc/16.1.0/lib/gcc/riscv64-elf/16.1.0/rv32im/ilp32/libgcc.a(_udivdi3.o)
 .note.GNU-stack
                0x00000000        0x0 /opt/homebrew/Cellar/riscv64-elf-gcc/16.1.0/lib/gcc/riscv64-elf/16.1.0/rv32im/ilp32/libgcc.a(_clz.o)

.debug_info     0x00000000      0xa86
 .debug_info    0x00000000      0x15a /opt/homebrew/Cellar/riscv64-elf-gcc/16.1.0/lib/gcc/riscv64-elf/16.1.0/rv32im/ilp32/libgcc.a(_clzsi2.o)
 .debug_info    0x0000015a      0x848 /opt/homebrew/Cellar/riscv64-elf-gcc/16.1.0/lib/gcc/riscv64-elf/16.1.0/rv32im/ilp32/libgcc.a(_udivdi3.o)
 .debug_info    0x000009a2       0xe4 /opt/homebrew/Cellar/riscv64-elf-gcc/16.1.0/lib/gcc/riscv64-elf/16.1.0/rv32im/ilp32/libgcc.a(_clz.o)

.debug_abbrev   0x00000000      0x2f3
 .debug_abbrev  0x00000000       0xd9 /opt/homebrew/Cellar/riscv64-elf-gcc/16.1.0/lib/gcc/riscv64-elf/16.1.0/rv32im/ilp32/libgcc.a(_clzsi2.o)
 .debug_abbrev  0x000000d9      0x1a4 /opt/homebrew/Cellar/riscv64-elf-gcc/16.1.0/lib/gcc/riscv64-elf/16.1.0/rv32im/ilp32/libgcc.a(_udivdi3.o)
 .debug_abbrev  0x0000027d       0x76 /opt/homebrew/Cellar/riscv64-elf-gcc/16.1.0/lib/gcc/riscv64-elf/16.1.0/rv32im/ilp32/libgcc.a(_clz.o)

.debug_loclists
                0x00000000      0xcda
 .debug_loclists
                0x00000000       0x79 /opt/homebrew/Cellar/riscv64-elf-gcc/16.1.0/lib/gcc/riscv64-elf/16.1.0/rv32im/ilp32/libgcc.a(_clzsi2.o)
 .debug_loclists
                0x00000079      0xc61 /opt/homebrew/Cellar/riscv64-elf-gcc/16.1.0/lib/gcc/riscv64-elf/16.1.0/rv32im/ilp32/libgcc.a(_udivdi3.o)

.debug_aranges  0x00000000       0x58
 .debug_aranges
                0x00000000       0x20 /opt/homebrew/Cellar/riscv64-elf-gcc/16.1.0/lib/gcc/riscv64-elf/16.1.0/rv32im/ilp32/libgcc.a(_clzsi2.o)
 .debug_aranges
                0x00000020       0x20 /opt/homebrew/Cellar/riscv64-elf-gcc/16.1.0/lib/gcc/riscv64-elf/16.1.0/rv32im/ilp32/libgcc.a(_udivdi3.o)
 .debug_aranges
                0x00000040       0x18 /opt/homebrew/Cellar/riscv64-elf-gcc/16.1.0/lib/gcc/riscv64-elf/16.1.0/rv32im/ilp32/libgcc.a(_clz.o)

.debug_rnglists
                0x00000000      0x126
 .debug_rnglists
                0x00000000       0x19 /opt/homebrew/Cellar/riscv64-elf-gcc/16.1.0/lib/gcc/riscv64-elf/16.1.0/rv32im/ilp32/libgcc.a(_clzsi2.o)
 .debug_rnglists
                0x00000019      0x10d /opt/homebrew/Cellar/riscv64-elf-gcc/16.1.0/lib/gcc/riscv64-elf/16.1.0/rv32im/ilp32/libgcc.a(_udivdi3.o)

.debug_line     0x00000000      0xbe6
 .debug_line    0x00000000      0x114 /opt/homebrew/Cellar/riscv64-elf-gcc/16.1.0/lib/gcc/riscv64-elf/16.1.0/rv32im/ilp32/libgcc.a(_clzsi2.o)
 .debug_line    0x00000114      0xa89 /opt/homebrew/Cellar/riscv64-elf-gcc/16.1.0/lib/gcc/riscv64-elf/16.1.0/rv32im/ilp32/libgcc.a(_udivdi3.o)
 .debug_line    0x00000b9d       0x49 /opt/homebrew/Cellar/riscv64-elf-gcc/16.1.0/lib/gcc/riscv64-elf/16.1.0/rv32im/ilp32/libgcc.a(_clz.o)

.debug_str      0x00000000      0x27e
 .debug_str     0x00000000      0x27e /opt/homebrew/Cellar/riscv64-elf-gcc/16.1.0/lib/gcc/riscv64-elf/16.1.0/rv32im/ilp32/libgcc.a(_clzsi2.o)
                                0x19a (size before relaxing)
 .debug_str     0x0000027e        0x0 /opt/homebrew/Cellar/riscv64-elf-gcc/16.1.0/lib/gcc/riscv64-elf/16.1.0/rv32im/ilp32/libgcc.a(_udivdi3.o)
                                0x230 (size before relaxing)
 .debug_str     0x0000027e        0x0 /opt/homebrew/Cellar/riscv64-elf-gcc/16.1.0/lib/gcc/riscv64-elf/16.1.0/rv32im/ilp32/libgcc.a(_clz.o)
                                0x17d (size before relaxing)

.debug_line_str
                0x00000000       0xb3
 .debug_line_str
                0x00000000       0xb3 /opt/homebrew/Cellar/riscv64-elf-gcc/16.1.0/lib/gcc/riscv64-elf/16.1.0/rv32im/ilp32/libgcc.a(_clzsi2.o)
                                 0xbd (size before relaxing)
 .debug_line_str
                0x000000b3        0x0 /opt/homebrew/Cellar/riscv64-elf-gcc/16.1.0/lib/gcc/riscv64-elf/16.1.0/rv32im/ilp32/libgcc.a(_udivdi3.o)
                                 0xbd (size before relaxing)
 .debug_line_str
                0x000000b3        0x0 /opt/homebrew/Cellar/riscv64-elf-gcc/16.1.0/lib/gcc/riscv64-elf/16.1.0/rv32im/ilp32/libgcc.a(_clz.o)
                                 0xbd (size before relaxing)

.debug_frame    0x00000000       0x20
 .debug_frame   0x00000000       0x20 /opt/homebrew/Cellar/riscv64-elf-gcc/16.1.0/lib/gcc/riscv64-elf/16.1.0/rv32im/ilp32/libgcc.a(_clzsi2.o)
